target datalayout = "e-m:e-p270:32:32-p271:32:32-p272:64:64-i64:64-i128:128-f80:128-n8:16:32:64-S128"
target triple = "x86_64-pc-linux-gnu"

%struct.EVP_AES_KEY = type { %union.anon, ptr, %union.anon.0 }
%union.anon = type { double, [240 x i8] }
%union.anon.0 = type { ptr }
%struct.evp_cipher_ctx_st = type { ptr, ptr, i32, i32, [16 x i8], [16 x i8], [32 x i8], i32, ptr, i32, i32, i64, ptr, i32, i32, [32 x i8], i64, ptr, ptr }

; Function Attrs: nounwind uwtable
define internal i32 @aes_cfb1_cipher(ptr noundef %0, ptr noundef %1, ptr noundef %2, i64 noundef %3) #0 {
  %5 = alloca i32, align 4
  %6 = alloca ptr, align 8
  %7 = alloca ptr, align 8
  %8 = alloca ptr, align 8
  %9 = alloca i64, align 8
  %10 = alloca ptr, align 8
  %11 = alloca i32, align 4
  %12 = alloca i32, align 4
  %13 = alloca i32, align 4
  %14 = alloca i32, align 4
  store ptr %0, ptr %6, align 8, !tbaa !7
  store ptr %1, ptr %7, align 8, !tbaa !10
  store ptr %2, ptr %8, align 8, !tbaa !10
  store i64 %3, ptr %9, align 8, !tbaa !16
  call void @llvm.lifetime.start.p0(i64 8, ptr %10) #4
  %15 = load ptr, ptr %6, align 8, !tbaa !7
  %16 = call ptr @EVP_CIPHER_CTX_get_cipher_data(ptr noundef %15)
  store ptr %16, ptr %10, align 8, !tbaa !12
  %17 = load ptr, ptr %6, align 8, !tbaa !7
  %18 = call i32 @EVP_CIPHER_CTX_test_flags(ptr noundef %17, i32 noundef 8192)
  %19 = icmp ne i32 %18, 0
  br i1 %19, label %20, label %39

20:                                               ; preds = %4
  call void @llvm.lifetime.start.p0(i64 4, ptr %11) #4
  %21 = load ptr, ptr %6, align 8, !tbaa !7
  %22 = call i32 @EVP_CIPHER_CTX_get_num(ptr noundef %21)
  store i32 %22, ptr %11, align 4, !tbaa !3
  %23 = load ptr, ptr %8, align 8, !tbaa !10
  %24 = load ptr, ptr %7, align 8, !tbaa !10
  %25 = load i64, ptr %9, align 8, !tbaa !16
  %26 = load ptr, ptr %10, align 8, !tbaa !12
  %27 = getelementptr inbounds nuw %struct.EVP_AES_KEY, ptr %26, i32 0, i32 0
  %28 = load ptr, ptr %6, align 8, !tbaa !7
  %29 = getelementptr inbounds nuw %struct.evp_cipher_ctx_st, ptr %28, i32 0, i32 5
  %30 = getelementptr inbounds [16 x i8], ptr %29, i64 0, i64 0
  %31 = load ptr, ptr %6, align 8, !tbaa !7
  %32 = call i32 @EVP_CIPHER_CTX_is_encrypting(ptr noundef %31)
  %33 = load ptr, ptr %10, align 8, !tbaa !12
  %34 = getelementptr inbounds nuw %struct.EVP_AES_KEY, ptr %33, i32 0, i32 1
  %35 = load ptr, ptr %34, align 8, !tbaa !13
  call void @CRYPTO_cfb128_1_encrypt(ptr noundef %23, ptr noundef %24, i64 noundef %25, ptr noundef %27, ptr noundef %30, ptr noundef %11, i32 noundef %32, ptr noundef %35)
  %36 = load ptr, ptr %6, align 8, !tbaa !7
  %37 = load i32, ptr %11, align 4, !tbaa !3
  %38 = call i32 @EVP_CIPHER_CTX_set_num(ptr noundef %36, i32 noundef %37)
  store i32 1, ptr %5, align 4
  store i32 1, ptr %12, align 4
  call void @llvm.lifetime.end.p0(i64 4, ptr %11) #4
  br label %91

39:                                               ; preds = %4
  br label %40

40:                                               ; preds = %43, %39
  %41 = load i64, ptr %9, align 8, !tbaa !16
  %42 = icmp uge i64 %41, 1152921504606846976
  br i1 %42, label %43, label %67

43:                                               ; preds = %40
  call void @llvm.lifetime.start.p0(i64 4, ptr %13) #4
  %44 = load ptr, ptr %6, align 8, !tbaa !7
  %45 = call i32 @EVP_CIPHER_CTX_get_num(ptr noundef %44)
  store i32 %45, ptr %13, align 4, !tbaa !3
  %46 = load ptr, ptr %8, align 8, !tbaa !10
  %47 = load ptr, ptr %7, align 8, !tbaa !10
  %48 = load ptr, ptr %10, align 8, !tbaa !12
  %49 = getelementptr inbounds nuw %struct.EVP_AES_KEY, ptr %48, i32 0, i32 0
  %50 = load ptr, ptr %6, align 8, !tbaa !7
  %51 = getelementptr inbounds nuw %struct.evp_cipher_ctx_st, ptr %50, i32 0, i32 5
  %52 = getelementptr inbounds [16 x i8], ptr %51, i64 0, i64 0
  %53 = load ptr, ptr %6, align 8, !tbaa !7
  %54 = call i32 @EVP_CIPHER_CTX_is_encrypting(ptr noundef %53)
  %55 = load ptr, ptr %10, align 8, !tbaa !12
  %56 = getelementptr inbounds nuw %struct.EVP_AES_KEY, ptr %55, i32 0, i32 1
  %57 = load ptr, ptr %56, align 8, !tbaa !13
  call void @CRYPTO_cfb128_1_encrypt(ptr noundef %46, ptr noundef %47, i64 noundef -9223372036854775808, ptr noundef %49, ptr noundef %52, ptr noundef %13, i32 noundef %54, ptr noundef %57)
  %58 = load ptr, ptr %6, align 8, !tbaa !7
  %59 = load i32, ptr %13, align 4, !tbaa !3
  %60 = call i32 @EVP_CIPHER_CTX_set_num(ptr noundef %58, i32 noundef %59)
  %61 = load i64, ptr %9, align 8, !tbaa !16
  %62 = sub i64 %61, 1152921504606846976
  store i64 %62, ptr %9, align 8, !tbaa !16
  %63 = load ptr, ptr %7, align 8, !tbaa !10
  %64 = getelementptr inbounds nuw i8, ptr %63, i64 1152921504606846976
  store ptr %64, ptr %7, align 8, !tbaa !10
  %65 = load ptr, ptr %8, align 8, !tbaa !10
  %66 = getelementptr inbounds nuw i8, ptr %65, i64 1152921504606846976
  store ptr %66, ptr %8, align 8, !tbaa !10
  call void @llvm.lifetime.end.p0(i64 4, ptr %13) #4
  br label %40, !llvm.loop !20

67:                                               ; preds = %40
  %68 = load i64, ptr %9, align 8, !tbaa !16
  %69 = icmp ne i64 %68, 0
  br i1 %69, label %70, label %90

70:                                               ; preds = %67
  call void @llvm.lifetime.start.p0(i64 4, ptr %14) #4
  %71 = load ptr, ptr %6, align 8, !tbaa !7
  %72 = call i32 @EVP_CIPHER_CTX_get_num(ptr noundef %71)
  store i32 %72, ptr %14, align 4, !tbaa !3
  %73 = load ptr, ptr %8, align 8, !tbaa !10
  %74 = load ptr, ptr %7, align 8, !tbaa !10
  %75 = load i64, ptr %9, align 8, !tbaa !16
  %76 = mul i64 %75, 8
  %77 = load ptr, ptr %10, align 8, !tbaa !12
  %78 = getelementptr inbounds nuw %struct.EVP_AES_KEY, ptr %77, i32 0, i32 0
  %79 = load ptr, ptr %6, align 8, !tbaa !7
  %80 = getelementptr inbounds nuw %struct.evp_cipher_ctx_st, ptr %79, i32 0, i32 5
  %81 = getelementptr inbounds [16 x i8], ptr %80, i64 0, i64 0
  %82 = load ptr, ptr %6, align 8, !tbaa !7
  %83 = call i32 @EVP_CIPHER_CTX_is_encrypting(ptr noundef %82)
  %84 = load ptr, ptr %10, align 8, !tbaa !12
  %85 = getelementptr inbounds nuw %struct.EVP_AES_KEY, ptr %84, i32 0, i32 1
  %86 = load ptr, ptr %85, align 8, !tbaa !13
  call void @CRYPTO_cfb128_1_encrypt(ptr noundef %73, ptr noundef %74, i64 noundef %76, ptr noundef %78, ptr noundef %81, ptr noundef %14, i32 noundef %83, ptr noundef %86)
  %87 = load ptr, ptr %6, align 8, !tbaa !7
  %88 = load i32, ptr %14, align 4, !tbaa !3
  %89 = call i32 @EVP_CIPHER_CTX_set_num(ptr noundef %87, i32 noundef %88)
  call void @llvm.lifetime.end.p0(i64 4, ptr %14) #4
  br label %90

90:                                               ; preds = %70, %67
  store i32 1, ptr %5, align 4
  store i32 1, ptr %12, align 4
  br label %91

91:                                               ; preds = %90, %20
  call void @llvm.lifetime.end.p0(i64 8, ptr %10) #4
  %92 = load i32, ptr %5, align 4
  ret i32 %92
}